target datalayout = "e-m:e-p270:32:32-p271:32:32-p272:64:64-i64:64-i128:128-f80:128-n8:16:32:64-S128"
target triple = "x86_64-pc-linux-gnu"

%struct.reduced_atom = type { [3 x float], i32 }
%struct.t_topology = type { ptr, %struct.t_idef, %struct.t_atoms, %struct.t_block, i8, %struct.t_symtab }
%struct.t_idef = type { i32, i32, ptr, ptr, float, ptr, ptr, [94 x %struct.t_ilist], i32 }
%struct.t_ilist = type { i32, ptr, i32 }
%struct.t_atoms = type { i32, ptr, ptr, ptr, ptr, i32, ptr, ptr, i8, i8, i8, i8, i8 }
%struct.t_block = type { i32, ptr, i32 }
%struct.t_symtab = type { i32, ptr }
%struct.t_trxframe = type { i32, i8, i32, i8, i64, i8, float, i8, i8, float, i32, i8, ptr, i8, float, i8, ptr, i8, ptr, i8, ptr, i8, [3 x [3 x float]], i8, i32, i8, ptr }

; Function Attrs: mustprogress nounwind uwtable
define internal void @_ZL9copy_rvecPKfPf(ptr noundef %0, ptr noundef %1) #2 {
  %3 = alloca ptr, align 8
  %4 = alloca ptr, align 8
  store ptr %0, ptr %3, align 8
  store ptr %1, ptr %4, align 8
  %5 = load ptr, ptr %3, align 8
  %6 = getelementptr inbounds float, ptr %5, i64 0
  %7 = load float, ptr %6, align 4
  %8 = load ptr, ptr %4, align 8
  %9 = getelementptr inbounds float, ptr %8, i64 0
  store float %7, ptr %9, align 4
  %10 = load ptr, ptr %3, align 8
  %11 = getelementptr inbounds float, ptr %10, i64 1
  %12 = load float, ptr %11, align 4
  %13 = load ptr, ptr %4, align 8
  %14 = getelementptr inbounds float, ptr %13, i64 1
  store float %12, ptr %14, align 4
  %15 = load ptr, ptr %3, align 8
  %16 = getelementptr inbounds float, ptr %15, i64 2
  %17 = load float, ptr %16, align 4
  %18 = load ptr, ptr %4, align 8
  %19 = getelementptr inbounds float, ptr %18, i64 2
  store float %17, ptr %19, align 4
  ret void
}

; Function Attrs: mustprogress uwtable
define void @_Z15rearrange_atomsP12reduced_atomP10t_trxframePKiiPK10t_topologybP20gmx_structurefactors(ptr noundef %0, ptr noundef %1, ptr noundef %2, i32 noundef %3, ptr noundef %4, i1 noundef zeroext %5, ptr noundef %6) #0 {
  %8 = alloca ptr, align 8
  %9 = alloca ptr, align 8
  %10 = alloca ptr, align 8
  %11 = alloca i32, align 4
  %12 = alloca ptr, align 8
  %13 = alloca i8, align 1
  %14 = alloca ptr, align 8
  %15 = alloca i32, align 4
  %16 = alloca ptr, align 8
  store ptr %0, ptr %8, align 8
  store ptr %1, ptr %9, align 8
  store ptr %2, ptr %10, align 8
  store i32 %3, ptr %11, align 4
  store ptr %4, ptr %12, align 8
  %17 = zext i1 %5 to i8
  store i8 %17, ptr %13, align 1
  store ptr %6, ptr %14, align 8
  %18 = load ptr, ptr %8, align 8
  store ptr %18, ptr %16, align 8
  %19 = load i8, ptr %13, align 1
  %20 = trunc i8 %19 to i1
  br i1 %20, label %21, label %51

21:                                               ; preds = %7
  store i32 0, ptr %15, align 4
  br label %22

22:                                               ; preds = %47, %21
  %23 = load i32, ptr %15, align 4
  %24 = load i32, ptr %11, align 4
  %25 = icmp slt i32 %23, %24
  br i1 %25, label %26, label %50

26:                                               ; preds = %22
  %27 = load ptr, ptr %12, align 8
  %28 = getelementptr inbounds %struct.t_topology, ptr %27, i32 0, i32 2
  %29 = getelementptr inbounds %struct.t_atoms, ptr %28, i32 0, i32 2
  %30 = load ptr, ptr %29, align 8
  %31 = load ptr, ptr %10, align 8
  %32 = load i32, ptr %15, align 4
  %33 = sext i32 %32 to i64
  %34 = getelementptr inbounds i32, ptr %31, i64 %33
  %35 = load i32, ptr %34, align 4
  %36 = sext i32 %35 to i64
  %37 = getelementptr inbounds ptr, ptr %30, i64 %36
  %38 = load ptr, ptr %37, align 8
  %39 = load ptr, ptr %38, align 8
  %40 = load ptr, ptr %14, align 8
  %41 = call noundef i32 @_Z16return_atom_typePKcP20gmx_structurefactors(ptr noundef %39, ptr noundef %40)
  %42 = load ptr, ptr %16, align 8
  %43 = load i32, ptr %15, align 4
  %44 = sext i32 %43 to i64
  %45 = getelementptr inbounds %struct.reduced_atom, ptr %42, i64 %44
  %46 = getelementptr inbounds %struct.reduced_atom, ptr %45, i32 0, i32 1
  store i32 %41, ptr %46, align 4
  br label %47

47:                                               ; preds = %26
  %48 = load i32, ptr %15, align 4
  %49 = add nsw i32 %48, 1
  store i32 %49, ptr %15, align 4
  br label %22, !llvm.loop !19

50:                                               ; preds = %22
  br label %51

51:                                               ; preds = %50, %7
  store i32 0, ptr %15, align 4
  br label %52

52:                                               ; preds = %74, %51
  %53 = load i32, ptr %15, align 4
  %54 = load i32, ptr %11, align 4
  %55 = icmp slt i32 %53, %54
  br i1 %55, label %56, label %77

56:                                               ; preds = %52
  %57 = load ptr, ptr %9, align 8
  %58 = getelementptr inbounds %struct.t_trxframe, ptr %57, i32 0, i32 16
  %59 = load ptr, ptr %58, align 8
  %60 = load ptr, ptr %10, align 8
  %61 = load i32, ptr %15, align 4
  %62 = sext i32 %61 to i64
  %63 = getelementptr inbounds i32, ptr %60, i64 %62
  %64 = load i32, ptr %63, align 4
  %65 = sext i32 %64 to i64
  %66 = getelementptr inbounds [3 x float], ptr %59, i64 %65
  %67 = getelementptr inbounds [3 x float], ptr %66, i64 0, i64 0
  %68 = load ptr, ptr %16, align 8
  %69 = load i32, ptr %15, align 4
  %70 = sext i32 %69 to i64
  %71 = getelementptr inbounds %struct.reduced_atom, ptr %68, i64 %70
  %72 = getelementptr inbounds %struct.reduced_atom, ptr %71, i32 0, i32 0
  %73 = getelementptr inbounds [3 x float], ptr %72, i64 0, i64 0
  call void @_ZL9copy_rvecPKfPf(ptr noundef %67, ptr noundef %73)
  br label %74

74:                                               ; preds = %56
  %75 = load i32, ptr %15, align 4
  %76 = add nsw i32 %75, 1
  store i32 %76, ptr %15, align 4
  br label %52, !llvm.loop !20

77:                                               ; preds = %52
  ret void
}