; Function Attrs: mustprogress uwtable
define void @_Z15rearrange_atomsP12reduced_atomP10t_trxframePKiiPK10t_topologybP20gmx_structurefactors(ptr nocapture noundef writeonly %0, ptr nocapture noundef readonly %1, ptr nocapture noundef readonly %2, i32 noundef %3, ptr nocapture noundef readonly %4, i1 noundef zeroext %5, ptr nocapture noundef readonly %6) local_unnamed_addr #0 {
  %8 = icmp sgt i32 %3, 0
  %or.cond = and i1 %8, %5
  br i1 %or.cond, label %.lr.ph, label %.loopexit

.lr.ph:                                           ; preds = %7
  %9 = getelementptr inbounds i8, ptr %4, i64 2336
  %wide.trip.count = zext nneg i32 %3 to i64
  br label %10

10:                                               ; preds = %.lr.ph, %10
  %indvars.iv = phi i64 [ 0, %.lr.ph ], [ %indvars.iv.next, %10 ]
  %11 = load ptr, ptr %9, align 8
  %12 = getelementptr inbounds i32, ptr %2, i64 %indvars.iv
  %13 = load i32, ptr %12, align 4
  %14 = sext i32 %13 to i64
  %15 = getelementptr inbounds ptr, ptr %11, i64 %14
  %16 = load ptr, ptr %15, align 8
  %17 = load ptr, ptr %16, align 8
  %18 = tail call noundef i32 @_Z16return_atom_typePKcP20gmx_structurefactors(ptr noundef %17, ptr noundef %6)
  %19 = getelementptr inbounds %struct.reduced_atom, ptr %0, i64 %indvars.iv, i32 1
  store i32 %18, ptr %19, align 4
  %indvars.iv.next = add nuw nsw i64 %indvars.iv, 1
  %exitcond.not = icmp eq i64 %indvars.iv.next, %wide.trip.count
  br i1 %exitcond.not, label %.loopexit, label %10, !llvm.loop !19

.loopexit:                                        ; preds = %10, %7
  br i1 %8, label %.lr.ph20, label %._crit_edge

.lr.ph20:                                         ; preds = %.loopexit
  %20 = getelementptr inbounds i8, ptr %1, i64 72
  %wide.trip.count25 = zext nneg i32 %3 to i64
  br label %21

21:                                               ; preds = %.lr.ph20, %21
  %indvars.iv22 = phi i64 [ 0, %.lr.ph20 ], [ %indvars.iv.next23, %21 ]
  %22 = load ptr, ptr %20, align 8
  %23 = getelementptr inbounds i32, ptr %2, i64 %indvars.iv22
  %24 = load i32, ptr %23, align 4
  %25 = sext i32 %24 to i64
  %26 = getelementptr inbounds [3 x float], ptr %22, i64 %25
  %27 = getelementptr inbounds %struct.reduced_atom, ptr %0, i64 %indvars.iv22
  %28 = load float, ptr %26, align 4
  store float %28, ptr %27, align 4
  %29 = getelementptr inbounds i8, ptr %26, i64 4
  %30 = load float, ptr %29, align 4
  %31 = getelementptr inbounds i8, ptr %27, i64 4
  store float %30, ptr %31, align 4
  %32 = getelementptr inbounds i8, ptr %26, i64 8
  %33 = load float, ptr %32, align 4
  %34 = getelementptr inbounds i8, ptr %27, i64 8
  store float %33, ptr %34, align 4
  %indvars.iv.next23 = add nuw nsw i64 %indvars.iv22, 1
  %exitcond26.not = icmp eq i64 %indvars.iv.next23, %wide.trip.count25
  br i1 %exitcond26.not, label %._crit_edge, label %21, !llvm.loop !20

._crit_edge:                                      ; preds = %21, %.loopexit
  ret void
}